target datalayout = "e-m:e-p270:32:32-p271:32:32-p272:64:64-i64:64-i128:128-f80:128-n8:16:32:64-S128"
target triple = "x86_64-pc-linux-gnu"

@.str.14 = private unnamed_addr constant [27 x i8] c"../openssl/test/dtlstest.c\00", align 1
@cert = internal global ptr null, align 8
@privkey = internal global ptr null, align 8
@.str.25 = private unnamed_addr constant [117 x i8] c"create_ssl_ctx_pair(NULL, DTLS_server_method(), DTLS_client_method(), DTLS1_VERSION, 0, &sctx, &cctx, cert, privkey)\00", align 1
@.str.33 = private unnamed_addr constant [67 x i8] c"create_ssl_objects(sctx, cctx, &serverssl, &clientssl, NULL, NULL)\00", align 1
@.str.68 = private unnamed_addr constant [71 x i8] c"create_bare_ssl_connection(serverssl, clientssl, SSL_ERROR_NONE, 1, 1)\00", align 1

; Function Attrs: nounwind uwtable
define internal i32 @test_listen() #0 {
  %1 = alloca i32, align 4
  %2 = alloca ptr, align 8
  %3 = alloca ptr, align 8
  %4 = alloca ptr, align 8
  %5 = alloca ptr, align 8
  %6 = alloca i32, align 4
  %7 = alloca i32, align 4
  call void @llvm.lifetime.start.p0(i64 8, ptr %2) #5
  store ptr null, ptr %2, align 8, !tbaa !11
  call void @llvm.lifetime.start.p0(i64 8, ptr %3) #5
  store ptr null, ptr %3, align 8, !tbaa !11
  call void @llvm.lifetime.start.p0(i64 8, ptr %4) #5
  store ptr null, ptr %4, align 8, !tbaa !13
  call void @llvm.lifetime.start.p0(i64 8, ptr %5) #5
  store ptr null, ptr %5, align 8, !tbaa !13
  call void @llvm.lifetime.start.p0(i64 4, ptr %6) #5
  store i32 0, ptr %6, align 4, !tbaa !9
  %8 = call ptr @DTLS_server_method()
  %9 = call ptr @DTLS_client_method()
  %10 = load ptr, ptr @cert, align 8, !tbaa !4
  %11 = load ptr, ptr @privkey, align 8, !tbaa !4
  %12 = call i32 @create_ssl_ctx_pair(ptr noundef null, ptr noundef %8, ptr noundef %9, i32 noundef 65279, i32 noundef 0, ptr noundef %2, ptr noundef %3, ptr noundef %10, ptr noundef %11)
  %13 = icmp ne i32 %12, 0
  %14 = zext i1 %13 to i32
  %15 = call i32 @test_true(ptr noundef @.str.14, i32 noundef 600, ptr noundef @.str.25, i32 noundef %14)
  %16 = icmp ne i32 %15, 0
  br i1 %16, label %18, label %17

17:                                               ; preds = %0
  store i32 0, ptr %1, align 4
  store i32 1, ptr %7, align 4
  br label %47

18:                                               ; preds = %0
  %19 = load ptr, ptr %2, align 8, !tbaa !11
  call void @SSL_CTX_set_cookie_generate_cb(ptr noundef %19, ptr noundef @generate_cookie_cb)
  %20 = load ptr, ptr %2, align 8, !tbaa !11
  call void @SSL_CTX_set_cookie_verify_cb(ptr noundef %20, ptr noundef @verify_cookie_cb)
  %21 = load ptr, ptr %2, align 8, !tbaa !11
  %22 = load ptr, ptr %3, align 8, !tbaa !11
  %23 = call i32 @create_ssl_objects(ptr noundef %21, ptr noundef %22, ptr noundef %4, ptr noundef %5, ptr noundef null, ptr noundef null)
  %24 = icmp ne i32 %23, 0
  %25 = zext i1 %24 to i32
  %26 = call i32 @test_true(ptr noundef @.str.14, i32 noundef 615, ptr noundef @.str.33, i32 noundef %25)
  %27 = icmp ne i32 %26, 0
  br i1 %27, label %29, label %28

28:                                               ; preds = %18
  br label %41

29:                                               ; preds = %18
  %30 = load ptr, ptr %5, align 8, !tbaa !13
  call void @DTLS_set_timer_cb(ptr noundef %30, ptr noundef @timer_cb)
  %31 = load ptr, ptr %4, align 8, !tbaa !13
  call void @DTLS_set_timer_cb(ptr noundef %31, ptr noundef @timer_cb)
  %32 = load ptr, ptr %4, align 8, !tbaa !13
  %33 = load ptr, ptr %5, align 8, !tbaa !13
  %34 = call i32 @create_bare_ssl_connection(ptr noundef %32, ptr noundef %33, i32 noundef 0, i32 noundef 1, i32 noundef 1)
  %35 = icmp ne i32 %34, 0
  %36 = zext i1 %35 to i32
  %37 = call i32 @test_true(ptr noundef @.str.14, i32 noundef 626, ptr noundef @.str.68, i32 noundef %36)
  %38 = icmp ne i32 %37, 0
  br i1 %38, label %40, label %39

39:                                               ; preds = %29
  br label %41

40:                                               ; preds = %29
  store i32 1, ptr %6, align 4, !tbaa !9
  br label %41

41:                                               ; preds = %40, %39, %28
  %42 = load ptr, ptr %4, align 8, !tbaa !13
  call void @SSL_free(ptr noundef %42)
  %43 = load ptr, ptr %5, align 8, !tbaa !13
  call void @SSL_free(ptr noundef %43)
  %44 = load ptr, ptr %2, align 8, !tbaa !11
  call void @SSL_CTX_free(ptr noundef %44)
  %45 = load ptr, ptr %3, align 8, !tbaa !11
  call void @SSL_CTX_free(ptr noundef %45)
  %46 = load i32, ptr %6, align 4, !tbaa !9
  store i32 %46, ptr %1, align 4
  store i32 1, ptr %7, align 4
  br label %47

47:                                               ; preds = %41, %17
  call void @llvm.lifetime.end.p0(i64 4, ptr %6) #5
  call void @llvm.lifetime.end.p0(i64 8, ptr %5) #5
  call void @llvm.lifetime.end.p0(i64 8, ptr %4) #5
  call void @llvm.lifetime.end.p0(i64 8, ptr %3) #5
  call void @llvm.lifetime.end.p0(i64 8, ptr %2) #5
  %48 = load i32, ptr %1, align 4
  ret i32 %48
}